; Function Attrs: nounwind uwtable
define internal void @touch_handler_cancel(ptr noundef readonly captures(address) %0, ptr readnone captures(none) %1) #0 {
  %3 = getelementptr inbounds nuw i8, ptr %0, i64 472
  %4 = getelementptr inbounds nuw i8, ptr %0, i64 480
  %5 = load ptr, ptr %4, align 8
  %.not12 = icmp eq ptr %5, %3
  br i1 %.not12, label %._crit_edge, label %.lr.ph

.lr.ph:                                           ; preds = %2, %.lr.ph
  %.pn1013 = phi ptr [ %.pn, %.lr.ph ], [ %5, %2 ]
  %.pn.in = getelementptr inbounds nuw i8, ptr %.pn1013, i64 8
  %.09 = getelementptr inbounds i8, ptr %.pn1013, i64 -24
  %.pn = load ptr, ptr %.pn.in, align 8
  tail call fastcc void @Wayland_SeatCancelTouch(ptr noundef nonnull %0, ptr noundef nonnull %.09)
  %.not = icmp eq ptr %.pn, %3
  br i1 %.not, label %._crit_edge, label %.lr.ph, !llvm.loop !22

._crit_edge:                                      ; preds = %.lr.ph, %2
  ret void
}